; Function Attrs: nofree norecurse nosync nounwind memory(argmem: readwrite) uwtable
define hidden void @python_hashlib_Hacl_Hash_SHA1_hash_oneshot(ptr noundef writeonly captures(none) initializes((0, 20)) %0, ptr noundef readonly captures(none) %1, i32 noundef %2) local_unnamed_addr #3 {
  %4 = alloca [128 x i8], align 16
  %5 = alloca [5 x i32], align 16
  call void @llvm.lifetime.start.p0(i64 20, ptr nonnull %5) #15
  call void @llvm.memcpy.p0.p0.i64(ptr noundef nonnull align 16 dereferenceable(20) %5, ptr noundef nonnull align 16 dereferenceable(20) @__const.python_hashlib_Hacl_Hash_SHA1_hash_oneshot.s, i64 20, i1 false)
  %6 = lshr i32 %2, 6
  %7 = and i32 %2, 63
  %8 = icmp eq i32 %7, 0
  %9 = icmp ugt i32 %2, 63
  %or.cond = and i1 %9, %8
  %10 = sext i1 %or.cond to i32
  %.0 = add nsw i32 %6, %10
  %11 = shl nuw i32 %.0, 6
  %12 = sub i32 %2, %11
  %13 = zext i32 %11 to i64
  %14 = getelementptr i8, ptr %1, i64 %13
  call void @python_hashlib_Hacl_Hash_SHA1_update_multi(ptr noundef nonnull %5, ptr noundef %1, i32 noundef %.0)
  %15 = lshr i32 %12, 6
  %16 = and i32 %12, -64
  %17 = zext i32 %16 to i64
  %18 = getelementptr i8, ptr %14, i64 %17
  call void @python_hashlib_Hacl_Hash_SHA1_update_multi(ptr noundef nonnull %5, ptr noundef readonly %14, i32 noundef %15)
  %19 = zext i32 %12 to i64
  %20 = sub i32 55, %2
  %21 = and i32 %20, 63
  call void @llvm.lifetime.start.p0(i64 128, ptr nonnull %4) #15
  call void @llvm.memset.p0.i64(ptr noundef nonnull align 16 dereferenceable(128) %4, i8 0, i64 128, i1 false)
  %22 = zext nneg i32 %7 to i64
  %23 = getelementptr i8, ptr %4, i64 %22
  call void @llvm.memcpy.p0.p0.i64(ptr nonnull align 16 %4, ptr readonly align 1 %18, i64 %22, i1 false)
  store i8 -128, ptr %23, align 1, !tbaa !11
  %24 = getelementptr i8, ptr %23, i64 1
  %.not.i.i = icmp eq i32 %21, 0
  br i1 %.not.i.i, label %python_hashlib_Hacl_Hash_SHA1_update_last.exit, label %.lr.ph.preheader.i.i

.lr.ph.preheader.i.i:                             ; preds = %3
  %25 = sub nsw i64 55, %19
  %26 = and i64 %25, 63
  call void @llvm.memset.p0.i64(ptr align 1 %24, i8 0, i64 %26, i1 false), !tbaa !11
  br label %python_hashlib_Hacl_Hash_SHA1_update_last.exit

python_hashlib_Hacl_Hash_SHA1_update_last.exit:   ; preds = %3, %.lr.ph.preheader.i.i
  %27 = add nuw nsw i64 %19, %13
  %28 = add nuw nsw i32 %7, 9
  %29 = add nuw nsw i32 %28, %21
  %30 = zext nneg i32 %21 to i64
  %31 = getelementptr i8, ptr %24, i64 %30
  %32 = shl nuw nsw i64 %27, 3
  %33 = tail call noundef i64 @llvm.bswap.i64(i64 range(i64 0, -7) %32)
  store i64 %33, ptr %31, align 1
  %34 = lshr i32 %29, 6
  call void @python_hashlib_Hacl_Hash_SHA1_update_multi(ptr noundef nonnull %5, ptr noundef nonnull %4, i32 noundef %34)
  call void @llvm.lifetime.end.p0(i64 128, ptr nonnull %4) #15
  %35 = load i32, ptr %5, align 16, !tbaa !3
  %36 = tail call noundef i32 @llvm.bswap.i32(i32 %35)
  store i32 %36, ptr %0, align 1
  %37 = getelementptr i8, ptr %0, i64 4
  %38 = getelementptr inbounds nuw i8, ptr %5, i64 4
  %39 = load i32, ptr %38, align 4, !tbaa !3
  %40 = tail call noundef i32 @llvm.bswap.i32(i32 %39)
  store i32 %40, ptr %37, align 1
  %41 = getelementptr i8, ptr %0, i64 8
  %42 = getelementptr inbounds nuw i8, ptr %5, i64 8
  %43 = load i32, ptr %42, align 8, !tbaa !3
  %44 = tail call noundef i32 @llvm.bswap.i32(i32 %43)
  store i32 %44, ptr %41, align 1
  %45 = getelementptr i8, ptr %0, i64 12
  %46 = getelementptr inbounds nuw i8, ptr %5, i64 12
  %47 = load i32, ptr %46, align 4, !tbaa !3
  %48 = tail call noundef i32 @llvm.bswap.i32(i32 %47)
  store i32 %48, ptr %45, align 1
  %49 = getelementptr i8, ptr %0, i64 16
  %50 = getelementptr inbounds nuw i8, ptr %5, i64 16
  %51 = load i32, ptr %50, align 16, !tbaa !3
  %52 = tail call noundef i32 @llvm.bswap.i32(i32 %51)
  store i32 %52, ptr %49, align 1
  call void @llvm.lifetime.end.p0(i64 20, ptr nonnull %5) #15
  ret void
}